target datalayout = "e-m:e-p270:32:32-p271:32:32-p272:64:64-i64:64-i128:128-f80:128-n8:16:32:64-S128"
target triple = "x86_64-pc-linux-gnu"

%struct.AVCodecContext = type { ptr, i32, i32, ptr, i32, i32, ptr, ptr, ptr, i64, i32, i32, ptr, i32, %struct.AVRational, %struct.AVRational, %struct.AVRational, i32, i32, i32, i32, i32, %struct.AVRational, i32, i32, i32, i32, i32, i32, i32, i32, i32, i32, i32, ptr, ptr, i32, float, float, float, float, float, float, float, float, float, i32, i32, i32, i32, i32, i32, i32, i32, i32, i32, i32, i32, ptr, ptr, ptr, i32, i32, i32, i32, i32, i32, i32, i32, i32, i32, %struct.AVChannelLayout, i32, i32, i32, i32, i32, i32, i32, i32, ptr, i32, i32, i32, float, float, i32, i32, i32, i32, i32, ptr, i64, i64, float, float, i32, i32, ptr, ptr, i32, i32, i32, i32, i32, ptr, ptr, ptr, ptr, i32, i32, [8 x i64], i32, i32, i32, i32, i32, i32, i32, ptr, ptr, i32, i32, i32, i32, i32, i32, i32, i32, i32, i32, ptr, ptr, i32, i32, ptr, ptr, ptr, ptr, i32, i32, i64, i32, i32, i64, ptr, i64, ptr, i32, ptr, i32 }
%struct.AVRational = type { i32, i32 }
%struct.AVChannelLayout = type { i32, i32, %union.anon.0, ptr }
%union.anon.0 = type { i64 }
%struct.WMACodecContext = type { ptr, %struct.GetBitContext, %struct.PutBitContext, i32, i32, i32, i32, i32, i32, %struct.VLC, [5 x i32], [5 x [25 x i16]], [5 x i32], i32, [5 x i32], [5 x i32], [5 x [16 x i32]], %struct.VLC, [2 x [16 x i32]], [2 x [16 x i32]], [2 x %struct.VLC], [2 x ptr], [2 x ptr], [2 x ptr], [2 x ptr], i32, i32, i32, i32, i32, i32, i32, i32, i32, i32, i8, [2 x i8], [2 x i32], [12 x i8], [2 x [2048 x float]], [2 x float], [2 x [2048 x float]], [8 x i8], [2 x [2048 x float]], [4096 x float], [5 x ptr], [5 x ptr], [5 x ptr], [8 x i8], [2 x [4096 x float]], [32832 x i8], i32, i32, [2 x i32], [8192 x float], i32, float, [2048 x float], [256 x float], [128 x float], [128 x float], ptr, i32, [12 x i8] }
%struct.GetBitContext = type { ptr, ptr, i32, i32, i32 }
%struct.PutBitContext = type { i32, i32, ptr, ptr, ptr }
%struct.VLC = type { i32, ptr, i32, i32 }
%struct.AVCodec = type { ptr, ptr, i32, i32, i32, i8, ptr, ptr, ptr, ptr, ptr, ptr, ptr, ptr }

@.str.5 = private unnamed_addr constant [45 x i8] c"too many channels: got %i, need %i or fewer\0A\00", align 1
@.str.6 = private unnamed_addr constant [37 x i8] c"sample rate is too high: %d > 48kHz\0A\00", align 1
@.str.7 = private unnamed_addr constant [48 x i8] c"bitrate too low: got %ld, need 24000 or higher\0A\00", align 1
@.str.8 = private unnamed_addr constant [30 x i8] c"Assertion %s failed at %s:%d\0A\00", align 1
@.str.9 = private unnamed_addr constant [2 x i8] c"0\00", align 1
@.str.10 = private unnamed_addr constant [20 x i8] c"libavcodec/wmaenc.c\00", align 1

; Function Attrs: cold nounwind optsize uwtable
define internal i32 @encode_init(ptr noundef %0) #0 {
  %2 = alloca i32, align 4
  %3 = alloca ptr, align 8
  %4 = alloca ptr, align 8
  %5 = alloca i32, align 4
  %6 = alloca i32, align 4
  %7 = alloca i32, align 4
  %8 = alloca i32, align 4
  %9 = alloca ptr, align 8
  %10 = alloca i32, align 4
  %11 = alloca i32, align 4
  %12 = alloca float, align 4
  store ptr %0, ptr %3, align 8, !tbaa !4
  call void @llvm.lifetime.start.p0(i64 8, ptr %4) #11
  %13 = load ptr, ptr %3, align 8, !tbaa !4
  %14 = getelementptr inbounds nuw %struct.AVCodecContext, ptr %13, i32 0, i32 6
  %15 = load ptr, ptr %14, align 8, !tbaa !9
  store ptr %15, ptr %4, align 8, !tbaa !29
  call void @llvm.lifetime.start.p0(i64 4, ptr %5) #11
  call void @llvm.lifetime.start.p0(i64 4, ptr %6) #11
  call void @llvm.lifetime.start.p0(i64 4, ptr %7) #11
  call void @llvm.lifetime.start.p0(i64 4, ptr %8) #11
  call void @llvm.lifetime.start.p0(i64 8, ptr %9) #11
  call void @llvm.lifetime.start.p0(i64 4, ptr %10) #11
  %16 = load ptr, ptr %3, align 8, !tbaa !4
  %17 = load ptr, ptr %4, align 8, !tbaa !29
  %18 = getelementptr inbounds nuw %struct.WMACodecContext, ptr %17, i32 0, i32 0
  store ptr %16, ptr %18, align 16, !tbaa !31
  %19 = load ptr, ptr %3, align 8, !tbaa !4
  %20 = getelementptr inbounds nuw %struct.AVCodecContext, ptr %19, i32 0, i32 71
  %21 = getelementptr inbounds nuw %struct.AVChannelLayout, ptr %20, i32 0, i32 1
  %22 = load i32, ptr %21, align 4, !tbaa !38
  %23 = icmp sgt i32 %22, 2
  br i1 %23, label %24, label %30

24:                                               ; preds = %1
  %25 = load ptr, ptr %3, align 8, !tbaa !4
  %26 = load ptr, ptr %3, align 8, !tbaa !4
  %27 = getelementptr inbounds nuw %struct.AVCodecContext, ptr %26, i32 0, i32 71
  %28 = getelementptr inbounds nuw %struct.AVChannelLayout, ptr %27, i32 0, i32 1
  %29 = load i32, ptr %28, align 4, !tbaa !38
  call void (ptr, i32, ptr, ...) @av_log(ptr noundef %25, i32 noundef 16, ptr noundef @.str.5, i32 noundef %29, i32 noundef 2)
  store i32 -22, ptr %2, align 4
  store i32 1, ptr %11, align 4
  br label %198

30:                                               ; preds = %1
  %31 = load ptr, ptr %3, align 8, !tbaa !4
  %32 = getelementptr inbounds nuw %struct.AVCodecContext, ptr %31, i32 0, i32 69
  %33 = load i32, ptr %32, align 8, !tbaa !39
  %34 = icmp sgt i32 %33, 48000
  br i1 %34, label %35, label %40

35:                                               ; preds = %30
  %36 = load ptr, ptr %3, align 8, !tbaa !4
  %37 = load ptr, ptr %3, align 8, !tbaa !4
  %38 = getelementptr inbounds nuw %struct.AVCodecContext, ptr %37, i32 0, i32 69
  %39 = load i32, ptr %38, align 8, !tbaa !39
  call void (ptr, i32, ptr, ...) @av_log(ptr noundef %36, i32 noundef 16, ptr noundef @.str.6, i32 noundef %39)
  store i32 -22, ptr %2, align 4
  store i32 1, ptr %11, align 4
  br label %198

40:                                               ; preds = %30
  %41 = load ptr, ptr %3, align 8, !tbaa !4
  %42 = getelementptr inbounds nuw %struct.AVCodecContext, ptr %41, i32 0, i32 9
  %43 = load i64, ptr %42, align 8, !tbaa !40
  %44 = icmp slt i64 %43, 24000
  br i1 %44, label %45, label %50

45:                                               ; preds = %40
  %46 = load ptr, ptr %3, align 8, !tbaa !4
  %47 = load ptr, ptr %3, align 8, !tbaa !4
  %48 = getelementptr inbounds nuw %struct.AVCodecContext, ptr %47, i32 0, i32 9
  %49 = load i64, ptr %48, align 8, !tbaa !40
  call void (ptr, i32, ptr, ...) @av_log(ptr noundef %46, i32 noundef 16, ptr noundef @.str.7, i64 noundef %49)
  store i32 -22, ptr %2, align 4
  store i32 1, ptr %11, align 4
  br label %198

50:                                               ; preds = %40
  store i32 0, ptr %6, align 4, !tbaa !41
  store i32 1, ptr %7, align 4, !tbaa !41
  %51 = load ptr, ptr %3, align 8, !tbaa !4
  %52 = getelementptr inbounds nuw %struct.AVCodecContext, ptr %51, i32 0, i32 3
  %53 = load ptr, ptr %52, align 8, !tbaa !42
  %54 = getelementptr inbounds nuw %struct.AVCodec, ptr %53, i32 0, i32 3
  %55 = load i32, ptr %54, align 4, !tbaa !43
  %56 = icmp eq i32 %55, 86023
  br i1 %56, label %57, label %72

57:                                               ; preds = %50
  %58 = call noalias ptr @av_malloc(i64 noundef 4)
  store ptr %58, ptr %9, align 8, !tbaa !48
  %59 = load ptr, ptr %9, align 8, !tbaa !48
  %60 = icmp ne ptr %59, null
  br i1 %60, label %62, label %61

61:                                               ; preds = %57
  store i32 -12, ptr %2, align 4
  store i32 1, ptr %11, align 4
  br label %198

62:                                               ; preds = %57
  %63 = load ptr, ptr %3, align 8, !tbaa !4
  %64 = getelementptr inbounds nuw %struct.AVCodecContext, ptr %63, i32 0, i32 13
  store i32 4, ptr %64, align 8, !tbaa !49
  %65 = load i32, ptr %6, align 4, !tbaa !41
  %66 = trunc i32 %65 to i16
  %67 = load ptr, ptr %9, align 8, !tbaa !48
  store i16 %66, ptr %67, align 1, !tbaa !50
  %68 = load i32, ptr %7, align 4, !tbaa !41
  %69 = trunc i32 %68 to i16
  %70 = load ptr, ptr %9, align 8, !tbaa !48
  %71 = getelementptr inbounds i8, ptr %70, i64 2
  store i16 %69, ptr %71, align 1, !tbaa !50
  br label %98

72:                                               ; preds = %50
  %73 = load ptr, ptr %3, align 8, !tbaa !4
  %74 = getelementptr inbounds nuw %struct.AVCodecContext, ptr %73, i32 0, i32 3
  %75 = load ptr, ptr %74, align 8, !tbaa !42
  %76 = getelementptr inbounds nuw %struct.AVCodec, ptr %75, i32 0, i32 3
  %77 = load i32, ptr %76, align 4, !tbaa !43
  %78 = icmp eq i32 %77, 86024
  br i1 %78, label %79, label %93

79:                                               ; preds = %72
  %80 = call noalias ptr @av_mallocz(i64 noundef 10)
  store ptr %80, ptr %9, align 8, !tbaa !48
  %81 = load ptr, ptr %9, align 8, !tbaa !48
  %82 = icmp ne ptr %81, null
  br i1 %82, label %84, label %83

83:                                               ; preds = %79
  store i32 -12, ptr %2, align 4
  store i32 1, ptr %11, align 4
  br label %198

84:                                               ; preds = %79
  %85 = load ptr, ptr %3, align 8, !tbaa !4
  %86 = getelementptr inbounds nuw %struct.AVCodecContext, ptr %85, i32 0, i32 13
  store i32 10, ptr %86, align 8, !tbaa !49
  %87 = load i32, ptr %6, align 4, !tbaa !41
  %88 = load ptr, ptr %9, align 8, !tbaa !48
  store i32 %87, ptr %88, align 1, !tbaa !50
  %89 = load i32, ptr %7, align 4, !tbaa !41
  %90 = trunc i32 %89 to i16
  %91 = load ptr, ptr %9, align 8, !tbaa !48
  %92 = getelementptr inbounds i8, ptr %91, i64 4
  store i16 %90, ptr %92, align 1, !tbaa !50
  br label %97

93:                                               ; preds = %72
  br label %94

94:                                               ; preds = %93
  call void (ptr, i32, ptr, ...) @av_log(ptr noundef null, i32 noundef 0, ptr noundef @.str.8, ptr noundef @.str.9, ptr noundef @.str.10, i32 noundef 82)
  call void @abort() #12
  unreachable

95:                                               ; No predecessors!
  br label %96

96:                                               ; preds = %95
  br label %97

97:                                               ; preds = %96, %84
  br label %98

98:                                               ; preds = %97, %62
  %99 = load ptr, ptr %9, align 8, !tbaa !48
  %100 = load ptr, ptr %3, align 8, !tbaa !4
  %101 = getelementptr inbounds nuw %struct.AVCodecContext, ptr %100, i32 0, i32 12
  store ptr %99, ptr %101, align 8, !tbaa !51
  %102 = load i32, ptr %7, align 4, !tbaa !41
  %103 = and i32 %102, 1
  %104 = load ptr, ptr %4, align 8, !tbaa !29
  %105 = getelementptr inbounds nuw %struct.WMACodecContext, ptr %104, i32 0, i32 6
  store i32 %103, ptr %105, align 4, !tbaa !52
  %106 = load i32, ptr %7, align 4, !tbaa !41
  %107 = and i32 %106, 2
  %108 = load ptr, ptr %4, align 8, !tbaa !29
  %109 = getelementptr inbounds nuw %struct.WMACodecContext, ptr %108, i32 0, i32 4
  store i32 %107, ptr %109, align 4, !tbaa !53
  %110 = load i32, ptr %7, align 4, !tbaa !41
  %111 = and i32 %110, 4
  %112 = load ptr, ptr %4, align 8, !tbaa !29
  %113 = getelementptr inbounds nuw %struct.WMACodecContext, ptr %112, i32 0, i32 5
  store i32 %111, ptr %113, align 16, !tbaa !54
  %114 = load ptr, ptr %3, align 8, !tbaa !4
  %115 = getelementptr inbounds nuw %struct.AVCodecContext, ptr %114, i32 0, i32 71
  %116 = getelementptr inbounds nuw %struct.AVChannelLayout, ptr %115, i32 0, i32 1
  %117 = load i32, ptr %116, align 4, !tbaa !38
  %118 = icmp eq i32 %117, 2
  br i1 %118, label %119, label %122

119:                                              ; preds = %98
  %120 = load ptr, ptr %4, align 8, !tbaa !29
  %121 = getelementptr inbounds nuw %struct.WMACodecContext, ptr %120, i32 0, i32 35
  store i8 1, ptr %121, align 8, !tbaa !55
  br label %122

122:                                              ; preds = %119, %98
  %123 = load ptr, ptr %3, align 8, !tbaa !4
  %124 = load i32, ptr %7, align 4, !tbaa !41
  %125 = call i32 @ff_wma_init(ptr noundef %123, i32 noundef %124)
  store i32 %125, ptr %10, align 4, !tbaa !41
  %126 = icmp slt i32 %125, 0
  br i1 %126, label %127, label %129

127:                                              ; preds = %122
  %128 = load i32, ptr %10, align 4, !tbaa !41
  store i32 %128, ptr %2, align 4
  store i32 1, ptr %11, align 4
  br label %198

129:                                              ; preds = %122
  store i32 0, ptr %5, align 4, !tbaa !41
  br label %130

130:                                              ; preds = %162, %129
  %131 = load i32, ptr %5, align 4, !tbaa !41
  %132 = load ptr, ptr %4, align 8, !tbaa !29
  %133 = getelementptr inbounds nuw %struct.WMACodecContext, ptr %132, i32 0, i32 27
  %134 = load i32, ptr %133, align 8, !tbaa !56
  %135 = icmp slt i32 %131, %134
  br i1 %135, label %136, label %165

136:                                              ; preds = %130
  call void @llvm.lifetime.start.p0(i64 4, ptr %12) #11
  store float 1.000000e+00, ptr %12, align 4, !tbaa !57
  %137 = load ptr, ptr %4, align 8, !tbaa !29
  %138 = getelementptr inbounds nuw %struct.WMACodecContext, ptr %137, i32 0, i32 45
  %139 = load i32, ptr %5, align 4, !tbaa !41
  %140 = sext i32 %139 to i64
  %141 = getelementptr inbounds [5 x ptr], ptr %138, i64 0, i64 %140
  %142 = load ptr, ptr %4, align 8, !tbaa !29
  %143 = getelementptr inbounds nuw %struct.WMACodecContext, ptr %142, i32 0, i32 46
  %144 = load i32, ptr %5, align 4, !tbaa !41
  %145 = sext i32 %144 to i64
  %146 = getelementptr inbounds [5 x ptr], ptr %143, i64 0, i64 %145
  %147 = load ptr, ptr %4, align 8, !tbaa !29
  %148 = getelementptr inbounds nuw %struct.WMACodecContext, ptr %147, i32 0, i32 26
  %149 = load i32, ptr %148, align 4, !tbaa !58
  %150 = load i32, ptr %5, align 4, !tbaa !41
  %151 = sub nsw i32 %149, %150
  %152 = shl i32 1, %151
  %153 = call i32 @av_tx_init(ptr noundef %141, ptr noundef %146, i32 noundef 1, i32 noundef 0, i32 noundef %152, ptr noundef %12, i64 noundef 0)
  store i32 %153, ptr %10, align 4, !tbaa !41
  %154 = load i32, ptr %10, align 4, !tbaa !41
  %155 = icmp slt i32 %154, 0
  br i1 %155, label %156, label %158

156:                                              ; preds = %136
  %157 = load i32, ptr %10, align 4, !tbaa !41
  store i32 %157, ptr %2, align 4
  store i32 1, ptr %11, align 4
  br label %159

158:                                              ; preds = %136
  store i32 0, ptr %11, align 4
  br label %159

159:                                              ; preds = %158, %156
  call void @llvm.lifetime.end.p0(i64 4, ptr %12) #11
  %160 = load i32, ptr %11, align 4
  switch i32 %160, label %198 [
    i32 0, label %161
  ]

161:                                              ; preds = %159
  br label %162

162:                                              ; preds = %161
  %163 = load i32, ptr %5, align 4, !tbaa !41
  %164 = add nsw i32 %163, 1
  store i32 %164, ptr %5, align 4, !tbaa !41
  br label %130, !llvm.loop !59

165:                                              ; preds = %130
  %166 = load ptr, ptr %3, align 8, !tbaa !4
  %167 = getelementptr inbounds nuw %struct.AVCodecContext, ptr %166, i32 0, i32 9
  %168 = load i64, ptr %167, align 8, !tbaa !40
  %169 = load ptr, ptr %4, align 8, !tbaa !29
  %170 = getelementptr inbounds nuw %struct.WMACodecContext, ptr %169, i32 0, i32 25
  %171 = load i32, ptr %170, align 16, !tbaa !61
  %172 = sext i32 %171 to i64
  %173 = mul nsw i64 %168, %172
  %174 = load ptr, ptr %3, align 8, !tbaa !4
  %175 = getelementptr inbounds nuw %struct.AVCodecContext, ptr %174, i32 0, i32 69
  %176 = load i32, ptr %175, align 8, !tbaa !39
  %177 = mul nsw i32 %176, 8
  %178 = sext i32 %177 to i64
  %179 = sdiv i64 %173, %178
  %180 = trunc i64 %179 to i32
  store i32 %180, ptr %8, align 4, !tbaa !41
  %181 = load i32, ptr %8, align 4, !tbaa !41
  %182 = icmp sgt i32 %181, 32768
  br i1 %182, label %183, label %184

183:                                              ; preds = %165
  br label %186

184:                                              ; preds = %165
  %185 = load i32, ptr %8, align 4, !tbaa !41
  br label %186

186:                                              ; preds = %184, %183
  %187 = phi i32 [ 32768, %183 ], [ %185, %184 ]
  store i32 %187, ptr %8, align 4, !tbaa !41
  %188 = load i32, ptr %8, align 4, !tbaa !41
  %189 = load ptr, ptr %3, align 8, !tbaa !4
  %190 = getelementptr inbounds nuw %struct.AVCodecContext, ptr %189, i32 0, i32 73
  store i32 %188, ptr %190, align 4, !tbaa !62
  %191 = load ptr, ptr %4, align 8, !tbaa !29
  %192 = getelementptr inbounds nuw %struct.WMACodecContext, ptr %191, i32 0, i32 25
  %193 = load i32, ptr %192, align 16, !tbaa !61
  %194 = load ptr, ptr %3, align 8, !tbaa !4
  %195 = getelementptr inbounds nuw %struct.AVCodecContext, ptr %194, i32 0, i32 77
  store i32 %193, ptr %195, align 4, !tbaa !63
  %196 = load ptr, ptr %3, align 8, !tbaa !4
  %197 = getelementptr inbounds nuw %struct.AVCodecContext, ptr %196, i32 0, i32 72
  store i32 %193, ptr %197, align 8, !tbaa !64
  store i32 0, ptr %2, align 4
  store i32 1, ptr %11, align 4
  br label %198

198:                                              ; preds = %186, %159, %127, %83, %61, %45, %35, %24
  call void @llvm.lifetime.end.p0(i64 4, ptr %10) #11
  call void @llvm.lifetime.end.p0(i64 8, ptr %9) #11
  call void @llvm.lifetime.end.p0(i64 4, ptr %8) #11
  call void @llvm.lifetime.end.p0(i64 4, ptr %7) #11
  call void @llvm.lifetime.end.p0(i64 4, ptr %6) #11
  call void @llvm.lifetime.end.p0(i64 4, ptr %5) #11
  call void @llvm.lifetime.end.p0(i64 8, ptr %4) #11
  %199 = load i32, ptr %2, align 4
  ret i32 %199
}