; Function Attrs: cold nounwind optsize uwtable
define internal range(i32 -2147483648, 1) i32 @encode_init(ptr noundef %0) #0 {
  %2 = alloca float, align 4
  %3 = getelementptr inbounds nuw i8, ptr %0, i64 32
  %4 = load ptr, ptr %3, align 8, !tbaa !4
  store ptr %0, ptr %4, align 16, !tbaa !27
  %5 = getelementptr inbounds nuw i8, ptr %0, i64 356
  %6 = load i32, ptr %5, align 4, !tbaa !35
  %7 = icmp sgt i32 %6, 2
  br i1 %7, label %8, label %9

8:                                                ; preds = %1
  tail call void (ptr, i32, ptr, ...) @av_log(ptr noundef nonnull %0, i32 noundef 16, ptr noundef nonnull @.str.5, i32 noundef %6, i32 noundef 2) #9
  br label %.loopexit

9:                                                ; preds = %1
  %10 = getelementptr inbounds nuw i8, ptr %0, i64 344
  %11 = load i32, ptr %10, align 8, !tbaa !36
  %12 = icmp sgt i32 %11, 48000
  br i1 %12, label %13, label %14

13:                                               ; preds = %9
  tail call void (ptr, i32, ptr, ...) @av_log(ptr noundef nonnull %0, i32 noundef 16, ptr noundef nonnull @.str.6, i32 noundef %11) #9
  br label %.loopexit

14:                                               ; preds = %9
  %15 = getelementptr inbounds nuw i8, ptr %0, i64 56
  %16 = load i64, ptr %15, align 8, !tbaa !37
  %17 = icmp slt i64 %16, 24000
  br i1 %17, label %18, label %19

18:                                               ; preds = %14
  tail call void (ptr, i32, ptr, ...) @av_log(ptr noundef nonnull %0, i32 noundef 16, ptr noundef nonnull @.str.7, i64 noundef %16) #9
  br label %.loopexit

19:                                               ; preds = %14
  %20 = getelementptr inbounds nuw i8, ptr %0, i64 16
  %21 = load ptr, ptr %20, align 8, !tbaa !38
  %22 = getelementptr inbounds nuw i8, ptr %21, i64 20
  %23 = load i32, ptr %22, align 4, !tbaa !39
  switch i32 %23, label %34 [
    i32 86023, label %24
    i32 86024, label %29
  ]

24:                                               ; preds = %19
  %25 = tail call noalias ptr @av_malloc(i64 noundef 4) #9
  %.not72 = icmp eq ptr %25, null
  br i1 %.not72, label %.loopexit, label %26

26:                                               ; preds = %24
  %27 = getelementptr inbounds nuw i8, ptr %0, i64 80
  store i32 4, ptr %27, align 8, !tbaa !44
  store i16 0, ptr %25, align 1, !tbaa !45
  %28 = getelementptr inbounds nuw i8, ptr %25, i64 2
  store i16 1, ptr %28, align 1, !tbaa !45
  br label %35

29:                                               ; preds = %19
  %30 = tail call noalias ptr @av_mallocz(i64 noundef 10) #9
  %.not = icmp eq ptr %30, null
  br i1 %.not, label %.loopexit, label %31

31:                                               ; preds = %29
  %32 = getelementptr inbounds nuw i8, ptr %0, i64 80
  store i32 10, ptr %32, align 8, !tbaa !44
  store i32 0, ptr %30, align 1, !tbaa !45
  %33 = getelementptr inbounds nuw i8, ptr %30, i64 4
  store i16 1, ptr %33, align 1, !tbaa !45
  br label %35

34:                                               ; preds = %19
  tail call void (ptr, i32, ptr, ...) @av_log(ptr noundef null, i32 noundef 0, ptr noundef nonnull @.str.8, ptr noundef nonnull @.str.9, ptr noundef nonnull @.str.10, i32 noundef 82) #9
  tail call void @abort() #10
  unreachable

35:                                               ; preds = %31, %26
  %.061 = phi ptr [ %25, %26 ], [ %30, %31 ]
  %36 = getelementptr inbounds nuw i8, ptr %0, i64 72
  store ptr %.061, ptr %36, align 8, !tbaa !46
  %37 = getelementptr inbounds nuw i8, ptr %4, i64 84
  store i32 1, ptr %37, align 4, !tbaa !47
  %38 = getelementptr inbounds nuw i8, ptr %4, i64 76
  store i32 0, ptr %38, align 4, !tbaa !48
  %39 = getelementptr inbounds nuw i8, ptr %4, i64 80
  store i32 0, ptr %39, align 16, !tbaa !49
  %40 = load i32, ptr %5, align 4, !tbaa !35
  %41 = icmp eq i32 %40, 2
  br i1 %41, label %42, label %44

42:                                               ; preds = %35
  %43 = getelementptr inbounds nuw i8, ptr %4, i64 1208
  store i8 1, ptr %43, align 8, !tbaa !50
  br label %44

44:                                               ; preds = %42, %35
  %45 = tail call i32 @ff_wma_init(ptr noundef nonnull %0, i32 noundef 1) #9
  %46 = icmp slt i32 %45, 0
  br i1 %46, label %.loopexit, label %.preheader

.preheader:                                       ; preds = %44
  %47 = getelementptr inbounds nuw i8, ptr %4, i64 1176
  %48 = load i32, ptr %47, align 8, !tbaa !51
  %49 = icmp sgt i32 %48, 0
  br i1 %49, label %.lr.ph, label %._crit_edge

.lr.ph:                                           ; preds = %.preheader
  %50 = getelementptr inbounds nuw i8, ptr %4, i64 66784
  %51 = getelementptr inbounds nuw i8, ptr %4, i64 66824
  %52 = getelementptr inbounds nuw i8, ptr %4, i64 1172
  br label %57

53:                                               ; preds = %57
  %indvars.iv.next = add nuw nsw i64 %indvars.iv, 1
  %54 = load i32, ptr %47, align 8, !tbaa !51
  %55 = sext i32 %54 to i64
  %56 = icmp slt i64 %indvars.iv.next, %55
  br i1 %56, label %57, label %._crit_edge, !llvm.loop !52

57:                                               ; preds = %.lr.ph, %53
  %indvars.iv = phi i64 [ 0, %.lr.ph ], [ %indvars.iv.next, %53 ]
  call void @llvm.lifetime.start.p0(i64 4, ptr nonnull %2) #9
  store float 1.000000e+00, ptr %2, align 4, !tbaa !54
  %58 = getelementptr inbounds nuw [5 x ptr], ptr %50, i64 0, i64 %indvars.iv
  %59 = getelementptr inbounds nuw [5 x ptr], ptr %51, i64 0, i64 %indvars.iv
  %60 = load i32, ptr %52, align 4, !tbaa !55
  %61 = trunc nuw nsw i64 %indvars.iv to i32
  %62 = sub nsw i32 %60, %61
  %63 = shl nuw i32 1, %62
  %64 = call i32 @av_tx_init(ptr noundef nonnull %58, ptr noundef nonnull %59, i32 noundef 1, i32 noundef 0, i32 noundef %63, ptr noundef nonnull %2, i64 noundef 0) #9
  %65 = icmp sgt i32 %64, -1
  call void @llvm.lifetime.end.p0(i64 4, ptr nonnull %2) #9
  br i1 %65, label %53, label %.loopexit

._crit_edge:                                      ; preds = %53, %.preheader
  %66 = load i64, ptr %15, align 8, !tbaa !37
  %67 = getelementptr inbounds nuw i8, ptr %4, i64 1168
  %68 = load i32, ptr %67, align 16, !tbaa !56
  %69 = sext i32 %68 to i64
  %70 = mul nsw i64 %66, %69
  %71 = load i32, ptr %10, align 8, !tbaa !36
  %72 = shl nsw i32 %71, 3
  %73 = sext i32 %72 to i64
  %74 = sdiv i64 %70, %73
  %75 = trunc i64 %74 to i32
  %76 = call i32 @llvm.smin.i32(i32 %75, i32 32768)
  %77 = getelementptr inbounds nuw i8, ptr %0, i64 380
  store i32 %76, ptr %77, align 4, !tbaa !57
  %78 = getelementptr inbounds nuw i8, ptr %0, i64 396
  store i32 %68, ptr %78, align 4, !tbaa !58
  %79 = getelementptr inbounds nuw i8, ptr %0, i64 376
  store i32 %68, ptr %79, align 8, !tbaa !59
  br label %.loopexit

.loopexit:                                        ; preds = %57, %44, %29, %24, %._crit_edge, %18, %13, %8
  %.062 = phi i32 [ -22, %8 ], [ -22, %13 ], [ -22, %18 ], [ 0, %._crit_edge ], [ -12, %24 ], [ -12, %29 ], [ %45, %44 ], [ %64, %57 ]
  ret i32 %.062
}